target datalayout = "e-m:e-p270:32:32-p271:32:32-p272:64:64-i64:64-i128:128-f80:128-n8:16:32:64-S128"
target triple = "x86_64-pc-linux-gnu"

%struct._typeobject = type { %struct.PyVarObject, ptr, i64, i64, ptr, i64, ptr, ptr, ptr, ptr, ptr, ptr, ptr, ptr, ptr, ptr, ptr, ptr, ptr, i64, ptr, ptr, ptr, ptr, i64, ptr, ptr, ptr, ptr, ptr, ptr, ptr, ptr, ptr, i64, ptr, ptr, ptr, ptr, ptr, ptr, ptr, ptr, ptr, ptr, ptr, i32, ptr, ptr, i8, i16 }
%struct.PyVarObject = type { %struct._object, i64 }
%struct._object = type { %union.anon, ptr }
%union.anon = type { i64 }
%struct.PyType_Slot = type { i32, ptr }
%struct.PyType_Spec = type { ptr, i32, i32, i32, ptr }

@PyExc_TypeError = external global ptr, align 8
@.str.37 = private unnamed_addr constant [60 x i8] c"pytype_fromspec_meta: must be invoked with a type argument!\00", align 1
@.str.38 = private unnamed_addr constant [32 x i8] c"_testcapi.HeapCTypeViaMetaclass\00", align 1

; Function Attrs: inlinehint nounwind uwtable
define internal i32 @PyType_HasFeature(ptr noundef %0, i64 noundef %1) #4 {
  %3 = alloca ptr, align 8
  %4 = alloca i64, align 8
  %5 = alloca i64, align 8
  store ptr %0, ptr %3, align 8, !tbaa !25
  store i64 %1, ptr %4, align 8, !tbaa !53
  call void @llvm.lifetime.start.p0(i64 8, ptr %5) #9
  %6 = load ptr, ptr %3, align 8, !tbaa !25
  %7 = getelementptr inbounds nuw %struct._typeobject, ptr %6, i32 0, i32 19
  %8 = load i64, ptr %7, align 8, !tbaa !54
  store i64 %8, ptr %5, align 8, !tbaa !53
  %9 = load i64, ptr %5, align 8, !tbaa !53
  %10 = load i64, ptr %4, align 8, !tbaa !53
  %11 = and i64 %9, %10
  %12 = icmp ne i64 %11, 0
  %13 = zext i1 %12 to i32
  call void @llvm.lifetime.end.p0(i64 8, ptr %5) #9
  ret i32 %13
}

; Function Attrs: inlinehint nounwind uwtable
define internal ptr @_Py_TYPE(ptr noundef %0) #4 {
  %2 = alloca ptr, align 8
  store ptr %0, ptr %2, align 8, !tbaa !3
  %3 = load ptr, ptr %2, align 8, !tbaa !3
  %4 = getelementptr inbounds nuw %struct._object, ptr %3, i32 0, i32 1
  %5 = load ptr, ptr %4, align 8, !tbaa !55
  ret ptr %5
}

; Function Attrs: inlinehint nounwind uwtable
define internal i32 @PyType_Check(ptr noundef %0) #4 {
  %2 = alloca ptr, align 8
  store ptr %0, ptr %2, align 8, !tbaa !3
  %3 = load ptr, ptr %2, align 8, !tbaa !3
  %4 = call ptr @_Py_TYPE(ptr noundef %3)
  %5 = call i32 @PyType_HasFeature(ptr noundef %4, i64 noundef 2147483648)
  ret i32 %5
}

; Function Attrs: nounwind uwtable
define internal ptr @pytype_fromspec_meta(ptr noundef %0, ptr noundef %1) #0 {
  %3 = alloca ptr, align 8
  %4 = alloca ptr, align 8
  %5 = alloca ptr, align 8
  %6 = alloca [1 x %struct.PyType_Slot], align 16
  %7 = alloca %struct.PyType_Spec, align 8
  store ptr %0, ptr %4, align 8, !tbaa !3
  store ptr %1, ptr %5, align 8, !tbaa !3
  %8 = load ptr, ptr %5, align 8, !tbaa !3
  %9 = call i32 @PyType_Check(ptr noundef %8)
  %10 = icmp ne i32 %9, 0
  br i1 %10, label %13, label %11

11:                                               ; preds = %2
  %12 = load ptr, ptr @PyExc_TypeError, align 8, !tbaa !3
  call void @PyErr_SetString(ptr noundef %12, ptr noundef @.str.37)
  store ptr null, ptr %3, align 8
  br label %23

13:                                               ; preds = %2
  call void @llvm.lifetime.start.p0(i64 16, ptr %6) #9
  call void @llvm.memset.p0.i64(ptr align 16 %6, i8 0, i64 16, i1 false)
  call void @llvm.lifetime.start.p0(i64 32, ptr %7) #9
  %14 = getelementptr inbounds nuw %struct.PyType_Spec, ptr %7, i32 0, i32 0
  store ptr @.str.38, ptr %14, align 8, !tbaa !13
  %15 = getelementptr inbounds nuw %struct.PyType_Spec, ptr %7, i32 0, i32 1
  store i32 16, ptr %15, align 8, !tbaa !16
  %16 = getelementptr inbounds nuw %struct.PyType_Spec, ptr %7, i32 0, i32 2
  store i32 0, ptr %16, align 4, !tbaa !17
  %17 = getelementptr inbounds nuw %struct.PyType_Spec, ptr %7, i32 0, i32 3
  store i32 1024, ptr %17, align 8, !tbaa !18
  %18 = getelementptr i8, ptr %7, i64 20
  call void @llvm.memset.p0.i64(ptr align 4 %18, i8 0, i64 4, i1 false)
  %19 = getelementptr inbounds nuw %struct.PyType_Spec, ptr %7, i32 0, i32 4
  %20 = getelementptr inbounds [1 x %struct.PyType_Slot], ptr %6, i64 0, i64 0
  store ptr %20, ptr %19, align 8, !tbaa !19
  %21 = load ptr, ptr %5, align 8, !tbaa !3
  %22 = call ptr @PyType_FromMetaclass(ptr noundef %21, ptr noundef null, ptr noundef %7, ptr noundef null)
  store ptr %22, ptr %3, align 8
  call void @llvm.lifetime.end.p0(i64 32, ptr %7) #9
  call void @llvm.lifetime.end.p0(i64 16, ptr %6) #9
  br label %23

23:                                               ; preds = %13, %11
  %24 = load ptr, ptr %3, align 8
  ret ptr %24
}