; Function Attrs: nounwind uwtable
define internal ptr @pytype_fromspec_meta(ptr readnone captures(none) %0, ptr noundef %1) #0 {
  %3 = alloca [1 x %struct.PyType_Slot], align 16
  %4 = alloca %struct.PyType_Spec, align 8
  %5 = getelementptr i8, ptr %1, i64 8
  %.val = load ptr, ptr %5, align 8, !tbaa !9
  %6 = getelementptr i8, ptr %.val, i64 168
  %.val.val = load i64, ptr %6, align 8, !tbaa !12
  %7 = and i64 %.val.val, 2147483648
  %.not3 = icmp eq i64 %7, 0
  br i1 %.not3, label %8, label %10

8:                                                ; preds = %2
  %9 = load ptr, ptr @PyExc_TypeError, align 8, !tbaa !23
  tail call void @PyErr_SetString(ptr noundef %9, ptr noundef nonnull @.str.37) #8
  br label %17

10:                                               ; preds = %2
  call void @llvm.lifetime.start.p0(i64 16, ptr nonnull %3) #8
  call void @llvm.memset.p0.i64(ptr noundef nonnull align 16 dereferenceable(16) %3, i8 0, i64 16, i1 false)
  call void @llvm.lifetime.start.p0(i64 32, ptr nonnull %4) #8
  store ptr @.str.38, ptr %4, align 8, !tbaa !24
  %11 = getelementptr inbounds nuw i8, ptr %4, i64 8
  store i32 16, ptr %11, align 8, !tbaa !26
  %12 = getelementptr inbounds nuw i8, ptr %4, i64 12
  store i32 0, ptr %12, align 4, !tbaa !27
  %13 = getelementptr inbounds nuw i8, ptr %4, i64 16
  store i32 1024, ptr %13, align 8, !tbaa !28
  %14 = getelementptr inbounds nuw i8, ptr %4, i64 20
  store i32 0, ptr %14, align 4
  %15 = getelementptr inbounds nuw i8, ptr %4, i64 24
  store ptr %3, ptr %15, align 8, !tbaa !29
  %16 = call ptr @PyType_FromMetaclass(ptr noundef nonnull %1, ptr noundef null, ptr noundef nonnull %4, ptr noundef null) #8
  call void @llvm.lifetime.end.p0(i64 32, ptr nonnull %4) #8
  call void @llvm.lifetime.end.p0(i64 16, ptr nonnull %3) #8
  br label %17

17:                                               ; preds = %10, %8
  %.0 = phi ptr [ %16, %10 ], [ null, %8 ]
  ret ptr %.0
}